; Function Attrs: mustprogress uwtable
define noundef nonnull align 8 dereferenceable(136) ptr @_ZN32pxrInternal_v0_24__pxrReserved__11GfTransform9SetMatrixERKNS_10GfMatrix4dE(ptr noundef nonnull returned align 8 dereferenceable(136) %0, ptr noundef nonnull align 8 dereferenceable(128) %1) local_unnamed_addr #0 align 2 {
  %3 = alloca %"class.pxrInternal_v0_24__pxrReserved__::GfMatrix4d", align 8
  %4 = alloca %"class.pxrInternal_v0_24__pxrReserved__::GfMatrix4d", align 8
  %5 = alloca %"class.pxrInternal_v0_24__pxrReserved__::GfVec3d", align 8
  %6 = alloca %"class.pxrInternal_v0_24__pxrReserved__::GfMatrix4d", align 8
  %7 = alloca %"class.pxrInternal_v0_24__pxrReserved__::GfMatrix4d", align 8
  %8 = alloca %"class.pxrInternal_v0_24__pxrReserved__::GfMatrix4d", align 8
  %9 = alloca %"class.pxrInternal_v0_24__pxrReserved__::GfMatrix4d", align 8
  %10 = alloca %"class.pxrInternal_v0_24__pxrReserved__::GfMatrix4d", align 8
  %11 = alloca %"class.pxrInternal_v0_24__pxrReserved__::GfRotation", align 8
  %12 = alloca %"class.pxrInternal_v0_24__pxrReserved__::GfRotation", align 8
  %13 = alloca %"class.pxrInternal_v0_24__pxrReserved__::GfMatrix4d", align 8
  %14 = getelementptr inbounds nuw i8, ptr %0, i64 112
  %15 = call noundef nonnull align 8 dereferenceable(128) ptr @_ZN32pxrInternal_v0_24__pxrReserved__10GfMatrix4d12SetTranslateERKNS_7GfVec3dE(ptr noundef nonnull align 8 dereferenceable(128) %3, ptr noundef nonnull align 8 dereferenceable(24) %14)
  call void @llvm.experimental.noalias.scope.decl(metadata !4)
  %16 = load double, ptr %14, align 8, !noalias !4
  %17 = fneg double %16
  %18 = getelementptr inbounds nuw i8, ptr %0, i64 120
  %19 = load double, ptr %18, align 8, !noalias !4
  %20 = fneg double %19
  %21 = getelementptr inbounds nuw i8, ptr %0, i64 128
  %22 = load double, ptr %21, align 8, !noalias !4
  %23 = fneg double %22
  store double %17, ptr %5, align 8, !alias.scope !4
  %24 = getelementptr inbounds nuw i8, ptr %5, i64 8
  store double %20, ptr %24, align 8, !alias.scope !4
  %25 = getelementptr inbounds nuw i8, ptr %5, i64 16
  store double %23, ptr %25, align 8, !alias.scope !4
  %26 = call noundef nonnull align 8 dereferenceable(128) ptr @_ZN32pxrInternal_v0_24__pxrReserved__10GfMatrix4d12SetTranslateERKNS_7GfVec3dE(ptr noundef nonnull align 8 dereferenceable(128) %4, ptr noundef nonnull align 8 dereferenceable(24) %5)
  call void @llvm.memcpy.p0.p0.i64(ptr noundef nonnull align 8 dereferenceable(128) %7, ptr noundef nonnull align 8 dereferenceable(128) %3, i64 128, i1 false)
  %27 = call noundef nonnull align 8 dereferenceable(128) ptr @_ZN32pxrInternal_v0_24__pxrReserved__10GfMatrix4dmLERKS0_(ptr noundef nonnull align 8 dereferenceable(128) %7, ptr noundef nonnull align 8 dereferenceable(128) %1)
  call void @llvm.memcpy.p0.p0.i64(ptr noundef nonnull align 8 dereferenceable(128) %6, ptr noundef nonnull align 8 dereferenceable(128) %7, i64 128, i1 false)
  %28 = call noundef nonnull align 8 dereferenceable(128) ptr @_ZN32pxrInternal_v0_24__pxrReserved__10GfMatrix4dmLERKS0_(ptr noundef nonnull align 8 dereferenceable(128) %6, ptr noundef nonnull align 8 dereferenceable(128) %4)
  %29 = getelementptr inbounds nuw i8, ptr %0, i64 56
  %30 = call noundef zeroext i1 @_ZNK32pxrInternal_v0_24__pxrReserved__10GfMatrix4d6FactorEPS0_PNS_7GfVec3dES1_S3_S1_d(ptr noundef nonnull align 8 dereferenceable(128) %6, ptr noundef nonnull %8, ptr noundef nonnull %29, ptr noundef nonnull %9, ptr noundef nonnull %0, ptr noundef nonnull %10, double noundef 1.000000e-10)
  call void @_ZNK32pxrInternal_v0_24__pxrReserved__10GfMatrix4d15ExtractRotationEv(ptr dead_on_unwind nonnull writable sret(%"class.pxrInternal_v0_24__pxrReserved__::GfRotation") align 8 %11, ptr noundef nonnull align 8 dereferenceable(128) %9)
  %31 = getelementptr inbounds nuw i8, ptr %0, i64 24
  call void @llvm.memcpy.p0.p0.i64(ptr noundef nonnull align 8 dereferenceable(32) %31, ptr noundef nonnull align 8 dereferenceable(32) %11, i64 32, i1 false)
  %32 = load double, ptr %29, align 8
  %33 = fcmp une double %32, 1.000000e+00
  %34 = getelementptr inbounds nuw i8, ptr %0, i64 64
  %35 = load double, ptr %34, align 8
  %36 = fcmp une double %35, 1.000000e+00
  %or.cond.not8 = select i1 %33, i1 true, i1 %36
  %37 = getelementptr inbounds nuw i8, ptr %0, i64 72
  %38 = load double, ptr %37, align 8
  %39 = fcmp une double %38, 1.000000e+00
  %or.cond6 = select i1 %or.cond.not8, i1 true, i1 %39
  br i1 %or.cond6, label %_ZNK32pxrInternal_v0_24__pxrReserved__7GfVec3dneERKS0_.exit.thread, label %41

_ZNK32pxrInternal_v0_24__pxrReserved__7GfVec3dneERKS0_.exit.thread: ; preds = %2
  call void @_ZNK32pxrInternal_v0_24__pxrReserved__10GfMatrix4d12GetTransposeEv(ptr dead_on_unwind nonnull writable sret(%"class.pxrInternal_v0_24__pxrReserved__::GfMatrix4d") align 8 %13, ptr noundef nonnull align 8 dereferenceable(128) %8)
  call void @_ZNK32pxrInternal_v0_24__pxrReserved__10GfMatrix4d15ExtractRotationEv(ptr dead_on_unwind nonnull writable sret(%"class.pxrInternal_v0_24__pxrReserved__::GfRotation") align 8 %12, ptr noundef nonnull align 8 dereferenceable(128) %13)
  %40 = getelementptr inbounds nuw i8, ptr %0, i64 80
  call void @llvm.memcpy.p0.p0.i64(ptr noundef nonnull align 8 dereferenceable(32) %40, ptr noundef nonnull align 8 dereferenceable(32) %12, i64 32, i1 false)
  br label %44

41:                                               ; preds = %2
  %42 = getelementptr inbounds nuw i8, ptr %0, i64 80
  store double 1.000000e+00, ptr %42, align 8
  %43 = getelementptr inbounds nuw i8, ptr %0, i64 88
  call void @llvm.memset.p0.i64(ptr noundef nonnull align 8 dereferenceable(24) %43, i8 0, i64 24, i1 false)
  br label %44

44:                                               ; preds = %41, %_ZNK32pxrInternal_v0_24__pxrReserved__7GfVec3dneERKS0_.exit.thread
  ret ptr %0
}